ARM GAS  C:\Users\andre\AppData\Local\Temp\cczyiaIy.s 			page 1


   1              		.syntax unified
   2              		.cpu cortex-m3
   3              		.fpu softvfp
   4              		.eabi_attribute 20, 1
   5              		.eabi_attribute 21, 1
   6              		.eabi_attribute 23, 3
   7              		.eabi_attribute 24, 1
   8              		.eabi_attribute 25, 1
   9              		.eabi_attribute 26, 1
  10              		.eabi_attribute 30, 1
  11              		.eabi_attribute 34, 1
  12              		.eabi_attribute 18, 4
  13              		.thumb
  14              		.syntax unified
  15              		.file	"main.c"
  16              		.text
  17              	.Ltext0:
  18              		.cfi_sections	.debug_frame
  19              		.section	.text.MY_ISR,"ax",%progbits
  20              		.align	2
  21              		.global	MY_ISR
  22              		.thumb
  23              		.thumb_func
  24              		.type	MY_ISR, %function
  25              	MY_ISR:
  26              	.LFB63:
  27              		.file 1 "main.c"
   1:main.c        **** /* ========================================
   2:main.c        ****  *
   3:main.c        ****  * Copyright YOUR COMPANY, THE YEAR
   4:main.c        ****  * All Rights Reserved
   5:main.c        ****  * UNPUBLISHED, LICENSED SOFTWARE.
   6:main.c        ****  *
   7:main.c        ****  * CONFIDENTIAL AND PROPRIETARY INFORMATION
   8:main.c        ****  * WHICH IS THE PROPERTY OF your company.
   9:main.c        ****  *
  10:main.c        ****  * ========================================
  11:main.c        **** */
  12:main.c        **** #include "project.h"
  13:main.c        **** 
  14:main.c        **** #define TIMER_CLOCK 24000000 // This value should match the clock input to the Timer
  15:main.c        **** 
  16:main.c        **** volatile uint16 ms_count = 0;
  17:main.c        **** 
  18:main.c        **** uint8 timer_flag = 0;
  19:main.c        **** void delay (uint16 ms);
  20:main.c        ****  
  21:main.c        **** CY_ISR(MY_ISR) {
  28              		.loc 1 21 0
  29              		.cfi_startproc
  30              		@ args = 0, pretend = 0, frame = 0
  31              		@ frame_needed = 0, uses_anonymous_args = 0
  32              		@ link register save eliminated.
  22:main.c        ****     ms_count++;
  33              		.loc 1 22 0
  34 0000 034A     		ldr	r2, .L2
  35 0002 1388     		ldrh	r3, [r2]
ARM GAS  C:\Users\andre\AppData\Local\Temp\cczyiaIy.s 			page 2


  36 0004 9BB2     		uxth	r3, r3
  37 0006 0133     		adds	r3, r3, #1
  38 0008 9BB2     		uxth	r3, r3
  39 000a 1380     		strh	r3, [r2]	@ movhi
  40 000c 7047     		bx	lr
  41              	.L3:
  42 000e 00BF     		.align	2
  43              	.L2:
  44 0010 00000000 		.word	.LANCHOR0
  45              		.cfi_endproc
  46              	.LFE63:
  47              		.size	MY_ISR, .-MY_ISR
  48              		.section	.text.update_disp,"ax",%progbits
  49              		.align	2
  50              		.global	update_disp
  51              		.thumb
  52              		.thumb_func
  53              		.type	update_disp, %function
  54              	update_disp:
  55              	.LFB65:
  23:main.c        **** }
  24:main.c        **** void update_disp(void);
  25:main.c        **** 
  26:main.c        **** #define tube_off 10
  27:main.c        **** #define ind_off 3
  28:main.c        **** 
  29:main.c        **** uint32_t decimal_lookup[11] = {0x0001, 0x0002, 0x0004, 0x0008, 0x0010, 0x0020, 0x0040, 0x0080, 0x01
  30:main.c        **** uint32_t ind_lookup[4] = {0x01, 0x02, 0x03, 0x00}; // ind_lookup[0] is top indicator, ind_lookup[1]
  31:main.c        **** 
  32:main.c        **** uint32_t data1 = 0; // Used to store data to be shifted
  33:main.c        **** uint32_t data2 = 0;
  34:main.c        **** uint32_t data3 = 0;
  35:main.c        **** 
  36:main.c        **** uint8_t  tube1 = 0; // Value to display on the corresponding tube.
  37:main.c        **** uint8_t  tube2 = 0;
  38:main.c        **** uint8_t  tube3 = 0;
  39:main.c        **** uint8_t  tube4 = 0;
  40:main.c        **** uint8_t  tube5 = 0;
  41:main.c        **** uint8_t  tube6 = 0;
  42:main.c        **** 
  43:main.c        **** uint8_t indicator1 = 0; // Value to display on the corresponding indicator. 
  44:main.c        **** uint8_t indicator2 = 0;
  45:main.c        **** uint8_t indicator3 = 0;
  46:main.c        **** 
  47:main.c        **** uint8_t output;
  48:main.c        **** 
  49:main.c        **** uint8_t seconds;
  50:main.c        **** uint8_t minutes;
  51:main.c        **** uint8_t hours;
  52:main.c        **** 
  53:main.c        **** uint8_t second1;
  54:main.c        **** uint8_t second2;
  55:main.c        **** uint8_t minute1;
  56:main.c        **** uint8_t minute2;
  57:main.c        **** uint8_t hour1;
  58:main.c        **** uint8_t hour2;
  59:main.c        **** 
ARM GAS  C:\Users\andre\AppData\Local\Temp\cczyiaIy.s 			page 3


  60:main.c        **** //DS3231 i2c addressは0X68
  61:main.c        **** #define sub_ad      0x68
  62:main.c        **** //variable//
  63:main.c        **** uint8   txbuf[]={0x00};     //送信バッファー
  64:main.c        **** uint8   rxbuf[8];         //受信バッファー
  65:main.c        **** //最初の仮時間書き込みデーター
  66:main.c        **** uint8 initbuf[]={0x00, // Register start address '16 -12-21 18:00:00
  67:main.c        ****     0x00, // second
  68:main.c        ****     0x05, // min
  69:main.c        ****     0x10, // hour 18 = 18 hour
  70:main.c        ****     0x02, // Day of the week 00 = sunday
  71:main.c        ****     0x21, // day 21 = 21 days
  72:main.c        ****     0x10, // month 12 = December
  73:main.c        ****     0x19, // year 16 = 16 yeasr
  74:main.c        ****            };
  75:main.c        **** 
  76:main.c        **** void readRTC(void);
  77:main.c        **** void writeUARTtime(void);
  78:main.c        **** 
  79:main.c        **** int main(void)
  80:main.c        **** {
  81:main.c        ****     Timer_1_Start(); // Configure and enable timer
  82:main.c        ****     isr_1_StartEx(MY_ISR); // Point to MY_ISR to carry out the interrupt sub-routine
  83:main.c        ****     SPIM_1_Start();
  84:main.c        ****     UART_1_Start();
  85:main.c        ****     I2C_1_Start();
  86:main.c        ****     PWM_1_Start();
  87:main.c        ****     ADC_DelSig_1_Start();
  88:main.c        ****     PWM_1_WriteCompare(100);
  89:main.c        ****     
  90:main.c        ****     /* Start the ADC conversion */
  91:main.c        ****     ADC_DelSig_1_StartConvert();
  92:main.c        ****     
  93:main.c        ****     
  94:main.c        ****     CyGlobalIntEnable; /* Enable global interrupts. */
  95:main.c        ****     
  96:main.c        ****     
  97:main.c        ****     
  98:main.c        ****   tube1 = tube_off;
  99:main.c        ****   tube2 = tube_off;
 100:main.c        ****   tube3 = tube_off;
 101:main.c        ****   tube4 = tube_off;
 102:main.c        ****   tube5 = tube_off;
 103:main.c        ****   tube6 = tube_off;
 104:main.c        ****   indicator1 = ind_off;
 105:main.c        ****   indicator2 = ind_off;
 106:main.c        ****   indicator3 = ind_off;
 107:main.c        ****   update_disp();
 108:main.c        ****   delay(1000);
 109:main.c        **** 
 110:main.c        **** I2C_1_MasterWriteBuf(sub_ad,initbuf,8,I2C_1_MODE_COMPLETE_XFER ); //Set Current Time
 111:main.c        ****   while(0u == (I2C_1_MasterStatus() & I2C_1_MSTAT_WR_CMPLT));      //Wait for write to complete
 112:main.c        **** 
 113:main.c        ****     for(;;)
 114:main.c        ****     {
 115:main.c        ****     readRTC();
 116:main.c        ****     writeUARTtime();
ARM GAS  C:\Users\andre\AppData\Local\Temp\cczyiaIy.s 			page 4


 117:main.c        ****     if(ADC_DelSig_1_IsEndConversion(ADC_DelSig_1_RETURN_STATUS))
 118:main.c        ****         {
 119:main.c        ****             output = abs(ADC_DelSig_1_GetResult32());
 120:main.c        ****             
 121:main.c        ****             /* Saturate ADC result to positive numbers. */
 122:main.c        ****             if(output < 30)
 123:main.c        ****             {
 124:main.c        ****                 output = 30;
 125:main.c        ****             }  
 126:main.c        ****             if(output > 240)
 127:main.c        ****             {
 128:main.c        ****                 output = 240;
 129:main.c        ****             }
 130:main.c        ****         }
 131:main.c        ****         
 132:main.c        ****   tube1 = (rxbuf[0] & 0x7f) % 10;
 133:main.c        ****   tube2 = (rxbuf[0] & 0x7f) / 10;
 134:main.c        ****   tube3 = (rxbuf[1] & 0x7f) % 10;
 135:main.c        ****   tube4 = (rxbuf[1] & 0x7f) / 10;
 136:main.c        ****   tube5 = (rxbuf[2] & 0x3f) % 10;
 137:main.c        ****   tube6 = (rxbuf[2] & 0x3f) / 10;
 138:main.c        ****   indicator1 = 1;
 139:main.c        ****   indicator2 = 1;
 140:main.c        ****   indicator3 = 1;
 141:main.c        ****   PWM_1_WriteCompare(output);
 142:main.c        ****   update_disp();
 143:main.c        ****   delay(20);
 144:main.c        ****    }
 145:main.c        ****  }
 146:main.c        **** 
 147:main.c        **** void update_disp(void){
  56              		.loc 1 147 0
  57              		.cfi_startproc
  58              		@ args = 0, pretend = 0, frame = 0
  59              		@ frame_needed = 0, uses_anonymous_args = 0
  60 0000 38B5     		push	{r3, r4, r5, lr}
  61              		.cfi_def_cfa_offset 16
  62              		.cfi_offset 3, -16
  63              		.cfi_offset 4, -12
  64              		.cfi_offset 5, -8
  65              		.cfi_offset 14, -4
 148:main.c        ****   data1 = 0x00000000;
  66              		.loc 1 148 0
  67 0002 404C     		ldr	r4, .L6
  68 0004 0025     		movs	r5, #0
 149:main.c        ****   data1 |= (((decimal_lookup[tube1]))&0x000003FF);
  69              		.loc 1 149 0
  70 0006 404B     		ldr	r3, .L6+4
  71 0008 227A     		ldrb	r2, [r4, #8]	@ zero_extendqisi2
  72 000a 53F82200 		ldr	r0, [r3, r2, lsl #2]
  73 000e C0F30900 		ubfx	r0, r0, #0, #10
 150:main.c        ****   data1 |= (((decimal_lookup[tube2])<<10)&0x000FFC00); 
  74              		.loc 1 150 0
  75 0012 627A     		ldrb	r2, [r4, #9]	@ zero_extendqisi2
  76 0014 53F82210 		ldr	r1, [r3, r2, lsl #2]
  77 0018 3C4A     		ldr	r2, .L6+8
  78 001a 02EA8121 		and	r1, r2, r1, lsl #10
ARM GAS  C:\Users\andre\AppData\Local\Temp\cczyiaIy.s 			page 5


  79 001e 0843     		orrs	r0, r0, r1
 151:main.c        ****   data1 |= (((ind_lookup[indicator1])<<20)&0x00300000);
  80              		.loc 1 151 0
  81 0020 A17A     		ldrb	r1, [r4, #10]	@ zero_extendqisi2
  82 0022 03EB8101 		add	r1, r3, r1, lsl #2
  83 0026 C96A     		ldr	r1, [r1, #44]
  84 0028 0905     		lsls	r1, r1, #20
  85 002a 01F44011 		and	r1, r1, #3145728
  86 002e 0143     		orrs	r1, r1, r0
  87 0030 6160     		str	r1, [r4, #4]
 152:main.c        ****   
 153:main.c        ****   data2 = 0x00000000;
 154:main.c        ****   data2 |= (((decimal_lookup[tube3]))&0x000003FF);
  88              		.loc 1 154 0
  89 0032 217C     		ldrb	r1, [r4, #16]	@ zero_extendqisi2
  90 0034 53F82100 		ldr	r0, [r3, r1, lsl #2]
  91 0038 C0F30900 		ubfx	r0, r0, #0, #10
 155:main.c        ****   data2 |= (((decimal_lookup[tube4])<<10)&0x000FFC00); 
  92              		.loc 1 155 0
  93 003c 617C     		ldrb	r1, [r4, #17]	@ zero_extendqisi2
  94 003e 53F82110 		ldr	r1, [r3, r1, lsl #2]
  95 0042 02EA8121 		and	r1, r2, r1, lsl #10
  96 0046 0843     		orrs	r0, r0, r1
 156:main.c        ****   data2 |= (((ind_lookup[indicator2])<<20)&0x00300000);
  97              		.loc 1 156 0
  98 0048 A17C     		ldrb	r1, [r4, #18]	@ zero_extendqisi2
  99 004a 03EB8101 		add	r1, r3, r1, lsl #2
 100 004e C96A     		ldr	r1, [r1, #44]
 101 0050 0905     		lsls	r1, r1, #20
 102 0052 01F44011 		and	r1, r1, #3145728
 103 0056 0143     		orrs	r1, r1, r0
 104 0058 E160     		str	r1, [r4, #12]
 157:main.c        **** 
 158:main.c        ****   data3 = 0x00000000;
 159:main.c        ****   data3 |= (((decimal_lookup[tube5]))&0x000003FF);
 105              		.loc 1 159 0
 106 005a 217E     		ldrb	r1, [r4, #24]	@ zero_extendqisi2
 107 005c 53F82110 		ldr	r1, [r3, r1, lsl #2]
 108 0060 C1F30901 		ubfx	r1, r1, #0, #10
 160:main.c        ****   data3 |= (((decimal_lookup[tube6])<<10)&0x000FFC00); 
 109              		.loc 1 160 0
 110 0064 607E     		ldrb	r0, [r4, #25]	@ zero_extendqisi2
 111 0066 53F82000 		ldr	r0, [r3, r0, lsl #2]
 112 006a 02EA8022 		and	r2, r2, r0, lsl #10
 113 006e 0A43     		orrs	r2, r2, r1
 161:main.c        ****   data3 |= (((ind_lookup[indicator3])<<20)&0x00300000); 
 114              		.loc 1 161 0
 115 0070 A17E     		ldrb	r1, [r4, #26]	@ zero_extendqisi2
 116 0072 03EB8103 		add	r3, r3, r1, lsl #2
 117 0076 DB6A     		ldr	r3, [r3, #44]
 118 0078 1B05     		lsls	r3, r3, #20
 119 007a 03F44013 		and	r3, r3, #3145728
 120 007e 1343     		orrs	r3, r3, r2
 121 0080 6361     		str	r3, [r4, #20]
 162:main.c        **** 
 163:main.c        ****   LD_Write(1);
 122              		.loc 1 163 0
ARM GAS  C:\Users\andre\AppData\Local\Temp\cczyiaIy.s 			page 6


 123 0082 0120     		movs	r0, #1
 124 0084 FFF7FEFF 		bl	LD_Write
 125              	.LVL0:
 164:main.c        ****   SPIM_1_WriteTxData(data1>>24);
 126              		.loc 1 164 0
 127 0088 E079     		ldrb	r0, [r4, #7]	@ zero_extendqisi2
 128 008a FFF7FEFF 		bl	SPIM_1_WriteTxData
 129              	.LVL1:
 165:main.c        ****   SPIM_1_WriteTxData(data1>>16);
 130              		.loc 1 165 0
 131 008e A079     		ldrb	r0, [r4, #6]	@ zero_extendqisi2
 132 0090 FFF7FEFF 		bl	SPIM_1_WriteTxData
 133              	.LVL2:
 166:main.c        ****   SPIM_1_WriteTxData(data1>>8);
 134              		.loc 1 166 0
 135 0094 6079     		ldrb	r0, [r4, #5]	@ zero_extendqisi2
 136 0096 FFF7FEFF 		bl	SPIM_1_WriteTxData
 137              	.LVL3:
 167:main.c        ****   SPIM_1_WriteTxData(data1);
 138              		.loc 1 167 0
 139 009a 2079     		ldrb	r0, [r4, #4]	@ zero_extendqisi2
 140 009c FFF7FEFF 		bl	SPIM_1_WriteTxData
 141              	.LVL4:
 168:main.c        ****   LD_Write(0);
 142              		.loc 1 168 0
 143 00a0 2846     		mov	r0, r5
 144 00a2 FFF7FEFF 		bl	LD_Write
 145              	.LVL5:
 169:main.c        ****   //delay(1);
 170:main.c        ****   LD_Write(1);
 146              		.loc 1 170 0
 147 00a6 0120     		movs	r0, #1
 148 00a8 FFF7FEFF 		bl	LD_Write
 149              	.LVL6:
 171:main.c        ****   
 172:main.c        ****   LD_Write(1);
 150              		.loc 1 172 0
 151 00ac 0120     		movs	r0, #1
 152 00ae FFF7FEFF 		bl	LD_Write
 153              	.LVL7:
 173:main.c        ****   SPIM_1_WriteTxData(data2>>24);
 154              		.loc 1 173 0
 155 00b2 E07B     		ldrb	r0, [r4, #15]	@ zero_extendqisi2
 156 00b4 FFF7FEFF 		bl	SPIM_1_WriteTxData
 157              	.LVL8:
 174:main.c        ****   SPIM_1_WriteTxData(data2>>16);
 158              		.loc 1 174 0
 159 00b8 A07B     		ldrb	r0, [r4, #14]	@ zero_extendqisi2
 160 00ba FFF7FEFF 		bl	SPIM_1_WriteTxData
 161              	.LVL9:
 175:main.c        ****   SPIM_1_WriteTxData(data2>>8);
 162              		.loc 1 175 0
 163 00be 607B     		ldrb	r0, [r4, #13]	@ zero_extendqisi2
 164 00c0 FFF7FEFF 		bl	SPIM_1_WriteTxData
 165              	.LVL10:
 176:main.c        ****   SPIM_1_WriteTxData(data2);
 166              		.loc 1 176 0
ARM GAS  C:\Users\andre\AppData\Local\Temp\cczyiaIy.s 			page 7


 167 00c4 207B     		ldrb	r0, [r4, #12]	@ zero_extendqisi2
 168 00c6 FFF7FEFF 		bl	SPIM_1_WriteTxData
 169              	.LVL11:
 177:main.c        ****   LD_Write(0);
 170              		.loc 1 177 0
 171 00ca 2846     		mov	r0, r5
 172 00cc FFF7FEFF 		bl	LD_Write
 173              	.LVL12:
 178:main.c        ****   //delay(1);
 179:main.c        ****   LD_Write(1);
 174              		.loc 1 179 0
 175 00d0 0120     		movs	r0, #1
 176 00d2 FFF7FEFF 		bl	LD_Write
 177              	.LVL13:
 180:main.c        ****   
 181:main.c        ****   LD_Write(1);
 178              		.loc 1 181 0
 179 00d6 0120     		movs	r0, #1
 180 00d8 FFF7FEFF 		bl	LD_Write
 181              	.LVL14:
 182:main.c        ****   SPIM_1_WriteTxData(data3>>24);
 182              		.loc 1 182 0
 183 00dc E07D     		ldrb	r0, [r4, #23]	@ zero_extendqisi2
 184 00de FFF7FEFF 		bl	SPIM_1_WriteTxData
 185              	.LVL15:
 183:main.c        ****   SPIM_1_WriteTxData(data3>>16);
 186              		.loc 1 183 0
 187 00e2 A07D     		ldrb	r0, [r4, #22]	@ zero_extendqisi2
 188 00e4 FFF7FEFF 		bl	SPIM_1_WriteTxData
 189              	.LVL16:
 184:main.c        ****   SPIM_1_WriteTxData(data3>>8);
 190              		.loc 1 184 0
 191 00e8 607D     		ldrb	r0, [r4, #21]	@ zero_extendqisi2
 192 00ea FFF7FEFF 		bl	SPIM_1_WriteTxData
 193              	.LVL17:
 185:main.c        ****   SPIM_1_WriteTxData(data3);
 194              		.loc 1 185 0
 195 00ee 207D     		ldrb	r0, [r4, #20]	@ zero_extendqisi2
 196 00f0 FFF7FEFF 		bl	SPIM_1_WriteTxData
 197              	.LVL18:
 186:main.c        ****   LD_Write(0);
 198              		.loc 1 186 0
 199 00f4 2846     		mov	r0, r5
 200 00f6 FFF7FEFF 		bl	LD_Write
 201              	.LVL19:
 187:main.c        ****   //delay(1);
 188:main.c        ****   LD_Write(1);
 202              		.loc 1 188 0
 203 00fa 0120     		movs	r0, #1
 204 00fc FFF7FEFF 		bl	LD_Write
 205              	.LVL20:
 206 0100 38BD     		pop	{r3, r4, r5, pc}
 207              	.L7:
 208 0102 00BF     		.align	2
 209              	.L6:
 210 0104 00000000 		.word	.LANCHOR0
 211 0108 00000000 		.word	.LANCHOR1
ARM GAS  C:\Users\andre\AppData\Local\Temp\cczyiaIy.s 			page 8


 212 010c 00FC0F00 		.word	1047552
 213              		.cfi_endproc
 214              	.LFE65:
 215              		.size	update_disp, .-update_disp
 216              		.section	.text.readRTC,"ax",%progbits
 217              		.align	2
 218              		.global	readRTC
 219              		.thumb
 220              		.thumb_func
 221              		.type	readRTC, %function
 222              	readRTC:
 223              	.LFB66:
 189:main.c        **** }
 190:main.c        **** 
 191:main.c        **** void readRTC(void)
 192:main.c        **** {
 224              		.loc 1 192 0
 225              		.cfi_startproc
 226              		@ args = 0, pretend = 0, frame = 0
 227              		@ frame_needed = 0, uses_anonymous_args = 0
 228 0000 08B5     		push	{r3, lr}
 229              		.cfi_def_cfa_offset 8
 230              		.cfi_offset 3, -8
 231              		.cfi_offset 14, -4
 193:main.c        ****     I2C_1_MasterWriteBuf(sub_ad,txbuf,1,I2C_1_MODE_COMPLETE_XFER );   // Send read start
 232              		.loc 1 193 0
 233 0002 0023     		movs	r3, #0
 234 0004 0122     		movs	r2, #1
 235 0006 0C49     		ldr	r1, .L12
 236 0008 6820     		movs	r0, #104
 237 000a FFF7FEFF 		bl	I2C_1_MasterWriteBuf
 238              	.LVL21:
 239              	.L9:
 194:main.c        ****     while(0u == (I2C_1_MasterStatus() & I2C_1_MSTAT_WR_CMPLT));      // Waiting for writing
 240              		.loc 1 194 0 discriminator 1
 241 000e FFF7FEFF 		bl	I2C_1_MasterStatus
 242              	.LVL22:
 243 0012 10F0020F 		tst	r0, #2
 244 0016 FAD0     		beq	.L9
 195:main.c        ****     I2C_1_MasterClearStatus();                                       //Clear Status
 245              		.loc 1 195 0
 246 0018 FFF7FEFF 		bl	I2C_1_MasterClearStatus
 247              	.LVL23:
 196:main.c        ****     I2C_1_MasterReadBuf(sub_ad,rxbuf,7,I2C_1_MODE_COMPLETE_XFER );   // Read time
 248              		.loc 1 196 0
 249 001c 0023     		movs	r3, #0
 250 001e 0722     		movs	r2, #7
 251 0020 0649     		ldr	r1, .L12+4
 252 0022 6820     		movs	r0, #104
 253 0024 FFF7FEFF 		bl	I2C_1_MasterReadBuf
 254              	.LVL24:
 255              	.L10:
 197:main.c        ****     while(0u == (I2C_1_MasterStatus() & I2C_1_MSTAT_RD_CMPLT));      // Waiting for reception compl
 256              		.loc 1 197 0 discriminator 1
 257 0028 FFF7FEFF 		bl	I2C_1_MasterStatus
 258              	.LVL25:
 259 002c 10F0010F 		tst	r0, #1
ARM GAS  C:\Users\andre\AppData\Local\Temp\cczyiaIy.s 			page 9


 260 0030 FAD0     		beq	.L10
 198:main.c        ****     I2C_1_MasterClearStatus();                                       // Clear status
 261              		.loc 1 198 0
 262 0032 FFF7FEFF 		bl	I2C_1_MasterClearStatus
 263              	.LVL26:
 264 0036 08BD     		pop	{r3, pc}
 265              	.L13:
 266              		.align	2
 267              	.L12:
 268 0038 1C000000 		.word	.LANCHOR0+28
 269 003c 00000000 		.word	rxbuf
 270              		.cfi_endproc
 271              	.LFE66:
 272              		.size	readRTC, .-readRTC
 273              		.section	.text.writeUARTtime,"ax",%progbits
 274              		.align	2
 275              		.global	writeUARTtime
 276              		.thumb
 277              		.thumb_func
 278              		.type	writeUARTtime, %function
 279              	writeUARTtime:
 280              	.LFB67:
 199:main.c        **** }
 200:main.c        **** 
 201:main.c        **** void writeUARTtime(void)
 202:main.c        **** {
 281              		.loc 1 202 0
 282              		.cfi_startproc
 283              		@ args = 0, pretend = 0, frame = 56
 284              		@ frame_needed = 0, uses_anonymous_args = 0
 285 0000 70B5     		push	{r4, r5, r6, lr}
 286              		.cfi_def_cfa_offset 16
 287              		.cfi_offset 4, -16
 288              		.cfi_offset 5, -12
 289              		.cfi_offset 6, -8
 290              		.cfi_offset 14, -4
 291 0002 8EB0     		sub	sp, sp, #56
 292              		.cfi_def_cfa_offset 72
 203:main.c        ****     char result[50]; 
 204:main.c        ****     
 205:main.c        ****     UART_1_PutString("\n");
 293              		.loc 1 205 0
 294 0004 3F48     		ldr	r0, .L25
 295 0006 FFF7FEFF 		bl	UART_1_PutString
 296              	.LVL27:
 206:main.c        ****     sprintf(result, "%u", rxbuf[6]); 
 297              		.loc 1 206 0
 298 000a 3F4C     		ldr	r4, .L25+4
 299 000c 3F4D     		ldr	r5, .L25+8
 300 000e A279     		ldrb	r2, [r4, #6]	@ zero_extendqisi2
 301 0010 2946     		mov	r1, r5
 302 0012 01A8     		add	r0, sp, #4
 303 0014 FFF7FEFF 		bl	sprintf
 304              	.LVL28:
 207:main.c        ****     UART_1_PutString(result);
 305              		.loc 1 207 0
 306 0018 01A8     		add	r0, sp, #4
ARM GAS  C:\Users\andre\AppData\Local\Temp\cczyiaIy.s 			page 10


 307 001a FFF7FEFF 		bl	UART_1_PutString
 308              	.LVL29:
 208:main.c        ****     UART_1_PutString("-");                
 309              		.loc 1 208 0
 310 001e 3C4E     		ldr	r6, .L25+12
 311 0020 3046     		mov	r0, r6
 312 0022 FFF7FEFF 		bl	UART_1_PutString
 313              	.LVL30:
 209:main.c        ****     sprintf(result, "%u", rxbuf[5]& 0x1f); 
 314              		.loc 1 209 0
 315 0026 6279     		ldrb	r2, [r4, #5]	@ zero_extendqisi2
 316 0028 02F01F02 		and	r2, r2, #31
 317 002c 2946     		mov	r1, r5
 318 002e 01A8     		add	r0, sp, #4
 319 0030 FFF7FEFF 		bl	sprintf
 320              	.LVL31:
 210:main.c        ****     UART_1_PutString(result);
 321              		.loc 1 210 0
 322 0034 01A8     		add	r0, sp, #4
 323 0036 FFF7FEFF 		bl	UART_1_PutString
 324              	.LVL32:
 211:main.c        ****     UART_1_PutString("-");          
 325              		.loc 1 211 0
 326 003a 3046     		mov	r0, r6
 327 003c FFF7FEFF 		bl	UART_1_PutString
 328              	.LVL33:
 212:main.c        ****     sprintf(result, "%u", rxbuf[4] & 0x3f); 
 329              		.loc 1 212 0
 330 0040 2279     		ldrb	r2, [r4, #4]	@ zero_extendqisi2
 331 0042 02F03F02 		and	r2, r2, #63
 332 0046 2946     		mov	r1, r5
 333 0048 01A8     		add	r0, sp, #4
 334 004a FFF7FEFF 		bl	sprintf
 335              	.LVL34:
 213:main.c        ****     UART_1_PutString(result);
 336              		.loc 1 213 0
 337 004e 01A8     		add	r0, sp, #4
 338 0050 FFF7FEFF 		bl	UART_1_PutString
 339              	.LVL35:
 214:main.c        ****     UART_1_PutString(" \n");         
 340              		.loc 1 214 0
 341 0054 2F48     		ldr	r0, .L25+16
 342 0056 FFF7FEFF 		bl	UART_1_PutString
 343              	.LVL36:
 215:main.c        ****      switch (rxbuf[3] & 0x07 )
 344              		.loc 1 215 0
 345 005a E378     		ldrb	r3, [r4, #3]	@ zero_extendqisi2
 346 005c 03F00703 		and	r3, r3, #7
 347 0060 062B     		cmp	r3, #6
 348 0062 20D8     		bhi	.L15
 349 0064 DFE803F0 		tbb	[pc, r3]
 350              	.L17:
 351 0068 04       		.byte	(.L16-.L17)/2
 352 0069 08       		.byte	(.L18-.L17)/2
 353 006a 0C       		.byte	(.L19-.L17)/2
 354 006b 10       		.byte	(.L20-.L17)/2
 355 006c 14       		.byte	(.L21-.L17)/2
ARM GAS  C:\Users\andre\AppData\Local\Temp\cczyiaIy.s 			page 11


 356 006d 18       		.byte	(.L22-.L17)/2
 357 006e 1C       		.byte	(.L23-.L17)/2
 358 006f 00       		.p2align 1
 359              	.L16:
 216:main.c        ****        {
 217:main.c        ****       case 0:UART_1_PutString("SUN");break;                       
 360              		.loc 1 217 0
 361 0070 2948     		ldr	r0, .L25+20
 362 0072 FFF7FEFF 		bl	UART_1_PutString
 363              	.LVL37:
 364 0076 16E0     		b	.L15
 365              	.L18:
 218:main.c        ****       case 1:UART_1_PutString("MON");break;
 366              		.loc 1 218 0
 367 0078 2848     		ldr	r0, .L25+24
 368 007a FFF7FEFF 		bl	UART_1_PutString
 369              	.LVL38:
 370 007e 12E0     		b	.L15
 371              	.L19:
 219:main.c        ****       case 2:UART_1_PutString("TUE");break;
 372              		.loc 1 219 0
 373 0080 2748     		ldr	r0, .L25+28
 374 0082 FFF7FEFF 		bl	UART_1_PutString
 375              	.LVL39:
 376 0086 0EE0     		b	.L15
 377              	.L20:
 220:main.c        ****       case 3:UART_1_PutString("WEN");break;
 378              		.loc 1 220 0
 379 0088 2648     		ldr	r0, .L25+32
 380 008a FFF7FEFF 		bl	UART_1_PutString
 381              	.LVL40:
 382 008e 0AE0     		b	.L15
 383              	.L21:
 221:main.c        ****       case 4:UART_1_PutString("THE");break;
 384              		.loc 1 221 0
 385 0090 2548     		ldr	r0, .L25+36
 386 0092 FFF7FEFF 		bl	UART_1_PutString
 387              	.LVL41:
 388 0096 06E0     		b	.L15
 389              	.L22:
 222:main.c        ****       case 5:UART_1_PutString("FRI");break;
 390              		.loc 1 222 0
 391 0098 2448     		ldr	r0, .L25+40
 392 009a FFF7FEFF 		bl	UART_1_PutString
 393              	.LVL42:
 394 009e 02E0     		b	.L15
 395              	.L23:
 223:main.c        ****       case 6:UART_1_PutString("SAT");break;
 396              		.loc 1 223 0
 397 00a0 2348     		ldr	r0, .L25+44
 398 00a2 FFF7FEFF 		bl	UART_1_PutString
 399              	.LVL43:
 400              	.L15:
 224:main.c        ****       break;
 225:main.c        ****       }  
 226:main.c        ****    UART_1_PutString("\n");    
 401              		.loc 1 226 0
ARM GAS  C:\Users\andre\AppData\Local\Temp\cczyiaIy.s 			page 12


 402 00a6 1748     		ldr	r0, .L25
 403 00a8 FFF7FEFF 		bl	UART_1_PutString
 404              	.LVL44:
 227:main.c        ****    sprintf(result, "%d", rxbuf[2] & 0x3f); 
 405              		.loc 1 227 0
 406 00ac 164D     		ldr	r5, .L25+4
 407 00ae AA78     		ldrb	r2, [r5, #2]	@ zero_extendqisi2
 408 00b0 204C     		ldr	r4, .L25+48
 409 00b2 02F03F02 		and	r2, r2, #63
 410 00b6 2146     		mov	r1, r4
 411 00b8 01A8     		add	r0, sp, #4
 412 00ba FFF7FEFF 		bl	sprintf
 413              	.LVL45:
 228:main.c        ****    UART_1_PutString(result);
 414              		.loc 1 228 0
 415 00be 01A8     		add	r0, sp, #4
 416 00c0 FFF7FEFF 		bl	UART_1_PutString
 417              	.LVL46:
 229:main.c        ****    UART_1_PutString(":");
 418              		.loc 1 229 0
 419 00c4 1C4E     		ldr	r6, .L25+52
 420 00c6 3046     		mov	r0, r6
 421 00c8 FFF7FEFF 		bl	UART_1_PutString
 422              	.LVL47:
 230:main.c        ****    sprintf(result, "%d", rxbuf[1] & 0x7f); 
 423              		.loc 1 230 0
 424 00cc 6A78     		ldrb	r2, [r5, #1]	@ zero_extendqisi2
 425 00ce 02F07F02 		and	r2, r2, #127
 426 00d2 2146     		mov	r1, r4
 427 00d4 01A8     		add	r0, sp, #4
 428 00d6 FFF7FEFF 		bl	sprintf
 429              	.LVL48:
 231:main.c        ****    UART_1_PutString(result);
 430              		.loc 1 231 0
 431 00da 01A8     		add	r0, sp, #4
 432 00dc FFF7FEFF 		bl	UART_1_PutString
 433              	.LVL49:
 232:main.c        ****    UART_1_PutString(":");
 434              		.loc 1 232 0
 435 00e0 3046     		mov	r0, r6
 436 00e2 FFF7FEFF 		bl	UART_1_PutString
 437              	.LVL50:
 233:main.c        ****    sprintf(result, "%d", rxbuf[0] & 0x7f); 
 438              		.loc 1 233 0
 439 00e6 2A78     		ldrb	r2, [r5]	@ zero_extendqisi2
 440 00e8 02F07F02 		and	r2, r2, #127
 441 00ec 2146     		mov	r1, r4
 442 00ee 01A8     		add	r0, sp, #4
 443 00f0 FFF7FEFF 		bl	sprintf
 444              	.LVL51:
 234:main.c        ****    UART_1_PutString(result);
 445              		.loc 1 234 0
 446 00f4 01A8     		add	r0, sp, #4
 447 00f6 FFF7FEFF 		bl	UART_1_PutString
 448              	.LVL52:
 235:main.c        ****    UART_1_PutChar('\n');
 449              		.loc 1 235 0
ARM GAS  C:\Users\andre\AppData\Local\Temp\cczyiaIy.s 			page 13


 450 00fa 0A20     		movs	r0, #10
 451 00fc FFF7FEFF 		bl	UART_1_PutChar
 452              	.LVL53:
 236:main.c        **** }
 453              		.loc 1 236 0
 454 0100 0EB0     		add	sp, sp, #56
 455              		.cfi_def_cfa_offset 16
 456              		@ sp needed
 457 0102 70BD     		pop	{r4, r5, r6, pc}
 458              	.L26:
 459              		.align	2
 460              	.L25:
 461 0104 00000000 		.word	.LC0
 462 0108 00000000 		.word	rxbuf
 463 010c 04000000 		.word	.LC1
 464 0110 08000000 		.word	.LC2
 465 0114 0C000000 		.word	.LC3
 466 0118 10000000 		.word	.LC4
 467 011c 14000000 		.word	.LC5
 468 0120 18000000 		.word	.LC6
 469 0124 1C000000 		.word	.LC7
 470 0128 20000000 		.word	.LC8
 471 012c 24000000 		.word	.LC9
 472 0130 28000000 		.word	.LC10
 473 0134 2C000000 		.word	.LC11
 474 0138 30000000 		.word	.LC12
 475              		.cfi_endproc
 476              	.LFE67:
 477              		.size	writeUARTtime, .-writeUARTtime
 478              		.section	.text.delay,"ax",%progbits
 479              		.align	2
 480              		.global	delay
 481              		.thumb
 482              		.thumb_func
 483              		.type	delay, %function
 484              	delay:
 485              	.LFB68:
 237:main.c        **** 
 238:main.c        **** void delay (uint16 ms) {
 486              		.loc 1 238 0
 487              		.cfi_startproc
 488              		@ args = 0, pretend = 0, frame = 0
 489              		@ frame_needed = 0, uses_anonymous_args = 0
 490              	.LVL54:
 491 0000 10B5     		push	{r4, lr}
 492              		.cfi_def_cfa_offset 8
 493              		.cfi_offset 4, -8
 494              		.cfi_offset 14, -4
 495 0002 0446     		mov	r4, r0
 239:main.c        ****     Timer_1_Enable(); // start the timeout counter
 496              		.loc 1 239 0
 497 0004 FFF7FEFF 		bl	Timer_1_Enable
 498              	.LVL55:
 499              	.L28:
 240:main.c        ****     while(ms_count < ms){}
 500              		.loc 1 240 0 discriminator 1
 501 0008 054B     		ldr	r3, .L30
ARM GAS  C:\Users\andre\AppData\Local\Temp\cczyiaIy.s 			page 14


 502 000a 1B88     		ldrh	r3, [r3]
 503 000c 9BB2     		uxth	r3, r3
 504 000e A342     		cmp	r3, r4
 505 0010 FAD3     		bcc	.L28
 241:main.c        ****     Timer_1_Stop();
 506              		.loc 1 241 0
 507 0012 FFF7FEFF 		bl	Timer_1_Stop
 508              	.LVL56:
 242:main.c        ****     ms_count = 0;
 509              		.loc 1 242 0
 510 0016 0022     		movs	r2, #0
 511 0018 014B     		ldr	r3, .L30
 512 001a 1A80     		strh	r2, [r3]	@ movhi
 513 001c 10BD     		pop	{r4, pc}
 514              	.L31:
 515 001e 00BF     		.align	2
 516              	.L30:
 517 0020 00000000 		.word	.LANCHOR0
 518              		.cfi_endproc
 519              	.LFE68:
 520              		.size	delay, .-delay
 521              		.section	.text.main,"ax",%progbits
 522              		.align	2
 523              		.global	main
 524              		.thumb
 525              		.thumb_func
 526              		.type	main, %function
 527              	main:
 528              	.LFB64:
  80:main.c        ****     Timer_1_Start(); // Configure and enable timer
 529              		.loc 1 80 0
 530              		.cfi_startproc
 531              		@ Volatile: function does not return.
 532              		@ args = 0, pretend = 0, frame = 0
 533              		@ frame_needed = 0, uses_anonymous_args = 0
 534 0000 08B5     		push	{r3, lr}
 535              		.cfi_def_cfa_offset 8
 536              		.cfi_offset 3, -8
 537              		.cfi_offset 14, -4
  81:main.c        ****     isr_1_StartEx(MY_ISR); // Point to MY_ISR to carry out the interrupt sub-routine
 538              		.loc 1 81 0
 539 0002 FFF7FEFF 		bl	Timer_1_Start
 540              	.LVL57:
  82:main.c        ****     SPIM_1_Start();
 541              		.loc 1 82 0
 542 0006 4148     		ldr	r0, .L38
 543 0008 FFF7FEFF 		bl	isr_1_StartEx
 544              	.LVL58:
  83:main.c        ****     UART_1_Start();
 545              		.loc 1 83 0
 546 000c FFF7FEFF 		bl	SPIM_1_Start
 547              	.LVL59:
  84:main.c        ****     I2C_1_Start();
 548              		.loc 1 84 0
 549 0010 FFF7FEFF 		bl	UART_1_Start
 550              	.LVL60:
  85:main.c        ****     PWM_1_Start();
ARM GAS  C:\Users\andre\AppData\Local\Temp\cczyiaIy.s 			page 15


 551              		.loc 1 85 0
 552 0014 FFF7FEFF 		bl	I2C_1_Start
 553              	.LVL61:
  86:main.c        ****     ADC_DelSig_1_Start();
 554              		.loc 1 86 0
 555 0018 FFF7FEFF 		bl	PWM_1_Start
 556              	.LVL62:
  87:main.c        ****     PWM_1_WriteCompare(100);
 557              		.loc 1 87 0
 558 001c FFF7FEFF 		bl	ADC_DelSig_1_Start
 559              	.LVL63:
  88:main.c        ****     
 560              		.loc 1 88 0
 561 0020 6420     		movs	r0, #100
 562 0022 FFF7FEFF 		bl	PWM_1_WriteCompare
 563              	.LVL64:
  91:main.c        ****     
 564              		.loc 1 91 0
 565 0026 FFF7FEFF 		bl	ADC_DelSig_1_StartConvert
 566              	.LVL65:
  94:main.c        ****     
 567              		.loc 1 94 0
 568              		.syntax unified
 569              	@ 94 "main.c" 1
 570 002a 62B6     		CPSIE   i
 571              	@ 0 "" 2
  98:main.c        ****   tube2 = tube_off;
 572              		.loc 1 98 0
 573              		.thumb
 574              		.syntax unified
 575 002c 384B     		ldr	r3, .L38+4
 576 002e 0A22     		movs	r2, #10
 577 0030 1A72     		strb	r2, [r3, #8]
  99:main.c        ****   tube3 = tube_off;
 578              		.loc 1 99 0
 579 0032 5A72     		strb	r2, [r3, #9]
 100:main.c        ****   tube4 = tube_off;
 580              		.loc 1 100 0
 581 0034 1A74     		strb	r2, [r3, #16]
 101:main.c        ****   tube5 = tube_off;
 582              		.loc 1 101 0
 583 0036 5A74     		strb	r2, [r3, #17]
 102:main.c        ****   tube6 = tube_off;
 584              		.loc 1 102 0
 585 0038 1A76     		strb	r2, [r3, #24]
 103:main.c        ****   indicator1 = ind_off;
 586              		.loc 1 103 0
 587 003a 5A76     		strb	r2, [r3, #25]
 104:main.c        ****   indicator2 = ind_off;
 588              		.loc 1 104 0
 589 003c 0322     		movs	r2, #3
 590 003e 9A72     		strb	r2, [r3, #10]
 105:main.c        ****   indicator3 = ind_off;
 591              		.loc 1 105 0
 592 0040 9A74     		strb	r2, [r3, #18]
 106:main.c        ****   update_disp();
 593              		.loc 1 106 0
ARM GAS  C:\Users\andre\AppData\Local\Temp\cczyiaIy.s 			page 16


 594 0042 9A76     		strb	r2, [r3, #26]
 107:main.c        ****   delay(1000);
 595              		.loc 1 107 0
 596 0044 FFF7FEFF 		bl	update_disp
 597              	.LVL66:
 108:main.c        **** 
 598              		.loc 1 108 0
 599 0048 4FF47A70 		mov	r0, #1000
 600 004c FFF7FEFF 		bl	delay
 601              	.LVL67:
 110:main.c        ****   while(0u == (I2C_1_MasterStatus() & I2C_1_MSTAT_WR_CMPLT));      //Wait for write to complete
 602              		.loc 1 110 0
 603 0050 0023     		movs	r3, #0
 604 0052 0822     		movs	r2, #8
 605 0054 2F49     		ldr	r1, .L38+8
 606 0056 6820     		movs	r0, #104
 607 0058 FFF7FEFF 		bl	I2C_1_MasterWriteBuf
 608              	.LVL68:
 609              	.L33:
 111:main.c        **** 
 610              		.loc 1 111 0 discriminator 1
 611 005c FFF7FEFF 		bl	I2C_1_MasterStatus
 612              	.LVL69:
 613 0060 10F0020F 		tst	r0, #2
 614 0064 FAD0     		beq	.L33
 615              	.L36:
 115:main.c        ****     writeUARTtime();
 616              		.loc 1 115 0
 617 0066 FFF7FEFF 		bl	readRTC
 618              	.LVL70:
 116:main.c        ****     if(ADC_DelSig_1_IsEndConversion(ADC_DelSig_1_RETURN_STATUS))
 619              		.loc 1 116 0
 620 006a FFF7FEFF 		bl	writeUARTtime
 621              	.LVL71:
 117:main.c        ****         {
 622              		.loc 1 117 0
 623 006e 0120     		movs	r0, #1
 624 0070 FFF7FEFF 		bl	ADC_DelSig_1_IsEndConversion
 625              	.LVL72:
 626 0074 90B1     		cbz	r0, .L34
 627              	.LBB2:
 119:main.c        ****             
 628              		.loc 1 119 0
 629 0076 FFF7FEFF 		bl	ADC_DelSig_1_GetResult32
 630              	.LVL73:
 631 007a 0028     		cmp	r0, #0
 632 007c B8BF     		it	lt
 633 007e 4042     		rsblt	r0, r0, #0
 634 0080 C0B2     		uxtb	r0, r0
 635 0082 254B     		ldr	r3, .L38+12
 636 0084 1870     		strb	r0, [r3]
 122:main.c        ****             {
 637              		.loc 1 122 0
 638 0086 1D28     		cmp	r0, #29
 639 0088 01D8     		bhi	.L35
 124:main.c        ****             }  
 640              		.loc 1 124 0
ARM GAS  C:\Users\andre\AppData\Local\Temp\cczyiaIy.s 			page 17


 641 008a 1E22     		movs	r2, #30
 642 008c 1A70     		strb	r2, [r3]
 643              	.L35:
 126:main.c        ****             {
 644              		.loc 1 126 0
 645 008e 224B     		ldr	r3, .L38+12
 646 0090 1B78     		ldrb	r3, [r3]	@ zero_extendqisi2
 647 0092 F02B     		cmp	r3, #240
 648 0094 02D9     		bls	.L34
 128:main.c        ****             }
 649              		.loc 1 128 0
 650 0096 F022     		movs	r2, #240
 651 0098 1F4B     		ldr	r3, .L38+12
 652 009a 1A70     		strb	r2, [r3]
 653              	.L34:
 654              	.LBE2:
 132:main.c        ****   tube2 = (rxbuf[0] & 0x7f) / 10;
 655              		.loc 1 132 0
 656 009c 1F4C     		ldr	r4, .L38+16
 657 009e 2178     		ldrb	r1, [r4]	@ zero_extendqisi2
 658 00a0 01F07F01 		and	r1, r1, #127
 659 00a4 1E4B     		ldr	r3, .L38+20
 660 00a6 83FB0102 		smull	r0, r2, r3, r1
 661 00aa 9210     		asrs	r2, r2, #2
 662 00ac 1546     		mov	r5, r2
 663 00ae 02EB8202 		add	r2, r2, r2, lsl #2
 664 00b2 5000     		lsls	r0, r2, #1
 665 00b4 0A1A     		subs	r2, r1, r0
 666 00b6 1649     		ldr	r1, .L38+4
 667 00b8 0A72     		strb	r2, [r1, #8]
 133:main.c        ****   tube3 = (rxbuf[1] & 0x7f) % 10;
 668              		.loc 1 133 0
 669 00ba 4D72     		strb	r5, [r1, #9]
 134:main.c        ****   tube4 = (rxbuf[1] & 0x7f) / 10;
 670              		.loc 1 134 0
 671 00bc 6078     		ldrb	r0, [r4, #1]	@ zero_extendqisi2
 672 00be 00F07F00 		and	r0, r0, #127
 673 00c2 83FB0052 		smull	r5, r2, r3, r0
 674 00c6 9210     		asrs	r2, r2, #2
 675 00c8 1646     		mov	r6, r2
 676 00ca 02EB8202 		add	r2, r2, r2, lsl #2
 677 00ce 5500     		lsls	r5, r2, #1
 678 00d0 421B     		subs	r2, r0, r5
 679 00d2 0A74     		strb	r2, [r1, #16]
 135:main.c        ****   tube5 = (rxbuf[2] & 0x3f) % 10;
 680              		.loc 1 135 0
 681 00d4 4E74     		strb	r6, [r1, #17]
 136:main.c        ****   tube6 = (rxbuf[2] & 0x3f) / 10;
 682              		.loc 1 136 0
 683 00d6 A278     		ldrb	r2, [r4, #2]	@ zero_extendqisi2
 684 00d8 02F03F02 		and	r2, r2, #63
 685 00dc 83FB0203 		smull	r0, r3, r3, r2
 686 00e0 9B10     		asrs	r3, r3, #2
 687 00e2 1C46     		mov	r4, r3
 688 00e4 03EB8303 		add	r3, r3, r3, lsl #2
 689 00e8 5800     		lsls	r0, r3, #1
 690 00ea 131A     		subs	r3, r2, r0
ARM GAS  C:\Users\andre\AppData\Local\Temp\cczyiaIy.s 			page 18


 691 00ec 0B76     		strb	r3, [r1, #24]
 137:main.c        ****   indicator1 = 1;
 692              		.loc 1 137 0
 693 00ee 4C76     		strb	r4, [r1, #25]
 138:main.c        ****   indicator2 = 1;
 694              		.loc 1 138 0
 695 00f0 0123     		movs	r3, #1
 696 00f2 8B72     		strb	r3, [r1, #10]
 139:main.c        ****   indicator3 = 1;
 697              		.loc 1 139 0
 698 00f4 8B74     		strb	r3, [r1, #18]
 140:main.c        ****   PWM_1_WriteCompare(output);
 699              		.loc 1 140 0
 700 00f6 8B76     		strb	r3, [r1, #26]
 141:main.c        ****   update_disp();
 701              		.loc 1 141 0
 702 00f8 074B     		ldr	r3, .L38+12
 703 00fa 1878     		ldrb	r0, [r3]	@ zero_extendqisi2
 704 00fc FFF7FEFF 		bl	PWM_1_WriteCompare
 705              	.LVL74:
 142:main.c        ****   delay(20);
 706              		.loc 1 142 0
 707 0100 FFF7FEFF 		bl	update_disp
 708              	.LVL75:
 143:main.c        ****    }
 709              		.loc 1 143 0
 710 0104 1420     		movs	r0, #20
 711 0106 FFF7FEFF 		bl	delay
 712              	.LVL76:
 144:main.c        ****  }
 713              		.loc 1 144 0
 714 010a ACE7     		b	.L36
 715              	.L39:
 716              		.align	2
 717              	.L38:
 718 010c 00000000 		.word	MY_ISR
 719 0110 00000000 		.word	.LANCHOR0
 720 0114 3C000000 		.word	.LANCHOR1+60
 721 0118 00000000 		.word	output
 722 011c 00000000 		.word	rxbuf
 723 0120 67666666 		.word	1717986919
 724              		.cfi_endproc
 725              	.LFE64:
 726              		.size	main, .-main
 727              		.global	__aeabi_i2d
 728              		.global	__aeabi_dadd
 729              		.global	__aeabi_d2iz
 730              		.section	.text.toArray,"ax",%progbits
 731              		.align	2
 732              		.global	toArray
 733              		.thumb
 734              		.thumb_func
 735              		.type	toArray, %function
 736              	toArray:
 737              	.LFB69:
 243:main.c        **** }
 244:main.c        **** 
ARM GAS  C:\Users\andre\AppData\Local\Temp\cczyiaIy.s 			page 19


 245:main.c        **** char * toArray(int number)
 246:main.c        ****     {
 738              		.loc 1 246 0
 739              		.cfi_startproc
 740              		@ args = 0, pretend = 0, frame = 0
 741              		@ frame_needed = 0, uses_anonymous_args = 0
 742              	.LVL77:
 743 0000 70B5     		push	{r4, r5, r6, lr}
 744              		.cfi_def_cfa_offset 16
 745              		.cfi_offset 4, -16
 746              		.cfi_offset 5, -12
 747              		.cfi_offset 6, -8
 748              		.cfi_offset 14, -4
 749 0002 0446     		mov	r4, r0
 247:main.c        ****         int n = log10(number) + 1;
 750              		.loc 1 247 0
 751 0004 FFF7FEFF 		bl	__aeabi_i2d
 752              	.LVL78:
 753 0008 FFF7FEFF 		bl	log10
 754              	.LVL79:
 755 000c 0022     		movs	r2, #0
 756 000e 0E4B     		ldr	r3, .L44
 757 0010 FFF7FEFF 		bl	__aeabi_dadd
 758              	.LVL80:
 759 0014 FFF7FEFF 		bl	__aeabi_d2iz
 760              	.LVL81:
 761 0018 0546     		mov	r5, r0
 762              	.LVL82:
 248:main.c        ****         int i;
 249:main.c        ****       char *numberArray = calloc(n, sizeof(char));
 763              		.loc 1 249 0
 764 001a 0121     		movs	r1, #1
 765 001c FFF7FEFF 		bl	calloc
 766              	.LVL83:
 250:main.c        ****         for ( i = 0; i < n; ++i, number /= 10 )
 767              		.loc 1 250 0
 768 0020 0022     		movs	r2, #0
 769 0022 0DE0     		b	.L41
 770              	.LVL84:
 771              	.L42:
 251:main.c        ****         {
 252:main.c        ****             numberArray[i] = number % 10;
 772              		.loc 1 252 0 discriminator 3
 773 0024 094B     		ldr	r3, .L44+4
 774 0026 83FB0431 		smull	r3, r1, r3, r4
 775 002a E317     		asrs	r3, r4, #31
 776 002c C3EBA103 		rsb	r3, r3, r1, asr #2
 777 0030 1E46     		mov	r6, r3
 778 0032 03EB8303 		add	r3, r3, r3, lsl #2
 779 0036 5900     		lsls	r1, r3, #1
 780 0038 631A     		subs	r3, r4, r1
 781 003a 8354     		strb	r3, [r0, r2]
 250:main.c        ****         for ( i = 0; i < n; ++i, number /= 10 )
 782              		.loc 1 250 0 discriminator 3
 783 003c 0132     		adds	r2, r2, #1
 784              	.LVL85:
 785 003e 3446     		mov	r4, r6
ARM GAS  C:\Users\andre\AppData\Local\Temp\cczyiaIy.s 			page 20


 786              	.LVL86:
 787              	.L41:
 250:main.c        ****         for ( i = 0; i < n; ++i, number /= 10 )
 788              		.loc 1 250 0 is_stmt 0 discriminator 1
 789 0040 AA42     		cmp	r2, r5
 790 0042 EFDB     		blt	.L42
 253:main.c        ****         }
 254:main.c        ****         return numberArray;
 255:main.c        ****     }
 791              		.loc 1 255 0 is_stmt 1
 792 0044 70BD     		pop	{r4, r5, r6, pc}
 793              	.LVL87:
 794              	.L45:
 795 0046 00BF     		.align	2
 796              	.L44:
 797 0048 0000F03F 		.word	1072693248
 798 004c 67666666 		.word	1717986919
 799              		.cfi_endproc
 800              	.LFE69:
 801              		.size	toArray, .-toArray
 802              		.global	initbuf
 803              		.comm	rxbuf,8,4
 804              		.global	txbuf
 805              		.comm	hour2,1,1
 806              		.comm	hour1,1,1
 807              		.comm	minute2,1,1
 808              		.comm	minute1,1,1
 809              		.comm	second2,1,1
 810              		.comm	second1,1,1
 811              		.comm	hours,1,1
 812              		.comm	minutes,1,1
 813              		.comm	seconds,1,1
 814              		.comm	output,1,1
 815              		.global	indicator3
 816              		.global	indicator2
 817              		.global	indicator1
 818              		.global	tube6
 819              		.global	tube5
 820              		.global	tube4
 821              		.global	tube3
 822              		.global	tube2
 823              		.global	tube1
 824              		.global	data3
 825              		.global	data2
 826              		.global	data1
 827              		.global	ind_lookup
 828              		.global	decimal_lookup
 829              		.global	timer_flag
 830              		.global	ms_count
 831              		.data
 832              		.align	2
 833              		.set	.LANCHOR1,. + 0
 834              		.type	decimal_lookup, %object
 835              		.size	decimal_lookup, 44
 836              	decimal_lookup:
 837 0000 01000000 		.word	1
 838 0004 02000000 		.word	2
ARM GAS  C:\Users\andre\AppData\Local\Temp\cczyiaIy.s 			page 21


 839 0008 04000000 		.word	4
 840 000c 08000000 		.word	8
 841 0010 10000000 		.word	16
 842 0014 20000000 		.word	32
 843 0018 40000000 		.word	64
 844 001c 80000000 		.word	128
 845 0020 00010000 		.word	256
 846 0024 00020000 		.word	512
 847 0028 00000000 		.word	0
 848              		.type	ind_lookup, %object
 849              		.size	ind_lookup, 16
 850              	ind_lookup:
 851 002c 01000000 		.word	1
 852 0030 02000000 		.word	2
 853 0034 03000000 		.word	3
 854 0038 00000000 		.word	0
 855              		.type	initbuf, %object
 856              		.size	initbuf, 8
 857              	initbuf:
 858 003c 00       		.byte	0
 859 003d 00       		.byte	0
 860 003e 05       		.byte	5
 861 003f 10       		.byte	16
 862 0040 02       		.byte	2
 863 0041 21       		.byte	33
 864 0042 10       		.byte	16
 865 0043 19       		.byte	25
 866              		.section	.rodata.str1.4,"aMS",%progbits,1
 867              		.align	2
 868              	.LC0:
 869 0000 0A00     		.ascii	"\012\000"
 870 0002 0000     		.space	2
 871              	.LC1:
 872 0004 257500   		.ascii	"%u\000"
 873 0007 00       		.space	1
 874              	.LC2:
 875 0008 2D00     		.ascii	"-\000"
 876 000a 0000     		.space	2
 877              	.LC3:
 878 000c 200A00   		.ascii	" \012\000"
 879 000f 00       		.space	1
 880              	.LC4:
 881 0010 53554E00 		.ascii	"SUN\000"
 882              	.LC5:
 883 0014 4D4F4E00 		.ascii	"MON\000"
 884              	.LC6:
 885 0018 54554500 		.ascii	"TUE\000"
 886              	.LC7:
 887 001c 57454E00 		.ascii	"WEN\000"
 888              	.LC8:
 889 0020 54484500 		.ascii	"THE\000"
 890              	.LC9:
 891 0024 46524900 		.ascii	"FRI\000"
 892              	.LC10:
 893 0028 53415400 		.ascii	"SAT\000"
 894              	.LC11:
 895 002c 256400   		.ascii	"%d\000"
ARM GAS  C:\Users\andre\AppData\Local\Temp\cczyiaIy.s 			page 22


 896 002f 00       		.space	1
 897              	.LC12:
 898 0030 3A00     		.ascii	":\000"
 899              		.bss
 900              		.align	2
 901              		.set	.LANCHOR0,. + 0
 902              		.type	ms_count, %object
 903              		.size	ms_count, 2
 904              	ms_count:
 905 0000 0000     		.space	2
 906 0002 0000     		.space	2
 907              		.type	data1, %object
 908              		.size	data1, 4
 909              	data1:
 910 0004 00000000 		.space	4
 911              		.type	tube1, %object
 912              		.size	tube1, 1
 913              	tube1:
 914 0008 00       		.space	1
 915              		.type	tube2, %object
 916              		.size	tube2, 1
 917              	tube2:
 918 0009 00       		.space	1
 919              		.type	indicator1, %object
 920              		.size	indicator1, 1
 921              	indicator1:
 922 000a 00       		.space	1
 923 000b 00       		.space	1
 924              		.type	data2, %object
 925              		.size	data2, 4
 926              	data2:
 927 000c 00000000 		.space	4
 928              		.type	tube3, %object
 929              		.size	tube3, 1
 930              	tube3:
 931 0010 00       		.space	1
 932              		.type	tube4, %object
 933              		.size	tube4, 1
 934              	tube4:
 935 0011 00       		.space	1
 936              		.type	indicator2, %object
 937              		.size	indicator2, 1
 938              	indicator2:
 939 0012 00       		.space	1
 940 0013 00       		.space	1
 941              		.type	data3, %object
 942              		.size	data3, 4
 943              	data3:
 944 0014 00000000 		.space	4
 945              		.type	tube5, %object
 946              		.size	tube5, 1
 947              	tube5:
 948 0018 00       		.space	1
 949              		.type	tube6, %object
 950              		.size	tube6, 1
 951              	tube6:
 952 0019 00       		.space	1
ARM GAS  C:\Users\andre\AppData\Local\Temp\cczyiaIy.s 			page 23


 953              		.type	indicator3, %object
 954              		.size	indicator3, 1
 955              	indicator3:
 956 001a 00       		.space	1
 957 001b 00       		.space	1
 958              		.type	txbuf, %object
 959              		.size	txbuf, 1
 960              	txbuf:
 961 001c 00       		.space	1
 962              		.type	timer_flag, %object
 963              		.size	timer_flag, 1
 964              	timer_flag:
 965 001d 00       		.space	1
 966              		.text
 967              	.Letext0:
 968              		.file 2 "c:\\program files (x86)\\cypress\\psoc creator\\4.2\\psoc creator\\import\\gnu\\arm\\5.4.
 969              		.file 3 "c:\\program files (x86)\\cypress\\psoc creator\\4.2\\psoc creator\\import\\gnu\\arm\\5.4.
 970              		.file 4 "Generated_Source\\PSoC5/cytypes.h"
 971              		.file 5 "<built-in>"
 972              		.file 6 "Generated_Source\\PSoC5/core_cm3.h"
 973              		.file 7 "Generated_Source\\PSoC5/LD.h"
 974              		.file 8 "Generated_Source\\PSoC5/SPIM_1.h"
 975              		.file 9 "Generated_Source\\PSoC5/I2C_1.h"
 976              		.file 10 "Generated_Source\\PSoC5/UART_1.h"
 977              		.file 11 "Generated_Source\\PSoC5/Timer_1.h"
 978              		.file 12 "Generated_Source\\PSoC5/ADC_DelSig_1.h"
 979              		.file 13 "Generated_Source\\PSoC5/isr_1.h"
 980              		.file 14 "Generated_Source\\PSoC5/PWM_1.h"